EXPORTS
??0AdbEndpointObject@@QAE@ABV0@@Z=AdbWinApi.??0AdbEndpointObject@@QAE@ABV0@@Z @1
??0AdbEndpointObject@@QAE@PAVAdbInterfaceObject@@EE@Z=AdbWinApi.??0AdbEndpointObject@@QAE@PAVAdbInterfaceObject@@EE@Z @2
??0AdbIOCompletion@@QAE@ABV0@@Z=AdbWinApi.??0AdbIOCompletion@@QAE@ABV0@@Z @3
??0AdbIOCompletion@@QAE@PAVAdbEndpointObject@@KPAX@Z=AdbWinApi.??0AdbIOCompletion@@QAE@PAVAdbEndpointObject@@KPAX@Z @4
??0AdbInterfaceObject@@QAE@ABV0@@Z=AdbWinApi.??0AdbInterfaceObject@@QAE@ABV0@@Z @5
??0AdbInterfaceObject@@QAE@PBG@Z=AdbWinApi.??0AdbInterfaceObject@@QAE@PBG@Z @6
??0AdbObjectHandle@@QAE@ABV0@@Z=AdbWinApi.??0AdbObjectHandle@@QAE@ABV0@@Z @7
??0AdbObjectHandle@@QAE@W4AdbObjectType@@@Z=AdbWinApi.??0AdbObjectHandle@@QAE@W4AdbObjectType@@@Z @8
??1AdbEndpointObject@@MAE@XZ=AdbWinApi.??1AdbEndpointObject@@MAE@XZ @9
??1AdbIOCompletion@@MAE@XZ=AdbWinApi.??1AdbIOCompletion@@MAE@XZ @10
??1AdbInterfaceObject@@MAE@XZ=AdbWinApi.??1AdbInterfaceObject@@MAE@XZ @11
??1AdbObjectHandle@@MAE@XZ=AdbWinApi.??1AdbObjectHandle@@MAE@XZ @12
??4AdbEndpointObject@@QAEAAV0@ABV0@@Z=AdbWinApi.??4AdbEndpointObject@@QAEAAV0@ABV0@@Z @13
??4AdbIOCompletion@@QAEAAV0@ABV0@@Z=AdbWinApi.??4AdbIOCompletion@@QAEAAV0@ABV0@@Z @14
??4AdbInterfaceObject@@QAEAAV0@ABV0@@Z=AdbWinApi.??4AdbInterfaceObject@@QAEAAV0@ABV0@@Z @15
??4AdbObjectHandle@@QAEAAV0@ABV0@@Z=AdbWinApi.??4AdbObjectHandle@@QAEAAV0@ABV0@@Z @16
??_7AdbEndpointObject@@6B@=AdbWinApi.??_7AdbEndpointObject@@6B@ @17
??_7AdbIOCompletion@@6B@=AdbWinApi.??_7AdbIOCompletion@@6B@ @18
??_7AdbInterfaceObject@@6B@=AdbWinApi.??_7AdbInterfaceObject@@6B@ @19
??_7AdbObjectHandle@@6B@=AdbWinApi.??_7AdbObjectHandle@@6B@ @20
?AddRef@AdbObjectHandle@@UAEJXZ=AdbWinApi.?AddRef@AdbObjectHandle@@UAEJXZ @21
?AsyncRead@AdbEndpointObject@@UAEPAXPAXKPAK0K@Z=AdbWinApi.?AsyncRead@AdbEndpointObject@@UAEPAXPAXKPAK0K@Z @22
?AsyncWrite@AdbEndpointObject@@UAEPAXPAXKPAK0K@Z=AdbWinApi.?AsyncWrite@AdbEndpointObject@@UAEPAXPAXKPAK0K@Z @23
?CloseHandle@AdbObjectHandle@@UAE_NXZ=AdbWinApi.?CloseHandle@AdbObjectHandle@@UAE_NXZ @24
?CreateHandle@AdbObjectHandle@@UAEPAXXZ=AdbWinApi.?CreateHandle@AdbObjectHandle@@UAEPAXXZ @25
?GetEndpointInformation@AdbEndpointObject@@UAE_NPAU_AdbEndpointInformation@@@Z=AdbWinApi.?GetEndpointInformation@AdbEndpointObject@@UAE_NPAU_AdbEndpointInformation@@@Z @26
?GetInterfaceName@AdbInterfaceObject@@UAE_NPAXPAK_N@Z=AdbWinApi.?GetInterfaceName@AdbInterfaceObject@@UAE_NPAXPAK_N@Z @27
?GetParentInterfaceHandle@AdbEndpointObject@@QBEPAXXZ=AdbWinApi.?GetParentInterfaceHandle@AdbEndpointObject@@QBEPAXXZ @28
?GetParentObjectHandle@AdbIOCompletion@@QBEPAXXZ=AdbWinApi.?GetParentObjectHandle@AdbIOCompletion@@QBEPAXXZ @29
?GetUsbConfigurationDescriptor@AdbInterfaceObject@@UAE_NPAU_USB_CONFIGURATION_DESCRIPTOR@@@Z=AdbWinApi.?GetUsbConfigurationDescriptor@AdbInterfaceObject@@UAE_NPAU_USB_CONFIGURATION_DESCRIPTOR@@@Z @30
?GetUsbDeviceDescriptor@AdbInterfaceObject@@UAE_NPAU_USB_DEVICE_DESCRIPTOR@@@Z=AdbWinApi.?GetUsbDeviceDescriptor@AdbInterfaceObject@@UAE_NPAU_USB_DEVICE_DESCRIPTOR@@@Z @31
?GetUsbInterfaceDescriptor@AdbInterfaceObject@@UAE_NPAU_USB_INTERFACE_DESCRIPTOR@@@Z=AdbWinApi.?GetUsbInterfaceDescriptor@AdbInterfaceObject@@UAE_NPAU_USB_INTERFACE_DESCRIPTOR@@@Z @32
?IsCompleted@AdbIOCompletion@@UAE_NXZ=AdbWinApi.?IsCompleted@AdbIOCompletion@@UAE_NXZ @33
?IsObjectOfType@AdbObjectHandle@@UBE_NW4AdbObjectType@@@Z=AdbWinApi.?IsObjectOfType@AdbObjectHandle@@UBE_NW4AdbObjectType@@@Z @34
?IsOpened@AdbObjectHandle@@QBE_NXZ=AdbWinApi.?IsOpened@AdbObjectHandle@@QBE_NXZ @35
?LastReferenceReleased@AdbObjectHandle@@MAEXXZ=AdbWinApi.?LastReferenceReleased@AdbObjectHandle@@MAEXXZ @36
?Lookup@AdbObjectHandle@@SGPAV1@PAX@Z=AdbWinApi.?Lookup@AdbObjectHandle@@SGPAV1@PAX@Z @37
?Release@AdbObjectHandle@@UAEJXZ=AdbWinApi.?Release@AdbObjectHandle@@UAEJXZ @38
?SyncRead@AdbEndpointObject@@UAE_NPAXKPAKK@Z=AdbWinApi.?SyncRead@AdbEndpointObject@@UAE_NPAXKPAKK@Z @39
?SyncWrite@AdbEndpointObject@@UAE_NPAXKPAKK@Z=AdbWinApi.?SyncWrite@AdbEndpointObject@@UAE_NPAXKPAKK@Z @40
?Type@AdbEndpointObject@@SG?AW4AdbObjectType@@XZ=AdbWinApi.?Type@AdbEndpointObject@@SG?AW4AdbObjectType@@XZ @41
?Type@AdbIOCompletion@@SG?AW4AdbObjectType@@XZ=AdbWinApi.?Type@AdbIOCompletion@@SG?AW4AdbObjectType@@XZ @42
?Type@AdbInterfaceObject@@SG?AW4AdbObjectType@@XZ=AdbWinApi.?Type@AdbInterfaceObject@@SG?AW4AdbObjectType@@XZ @43
?adb_handle@AdbObjectHandle@@QBEPAXXZ=AdbWinApi.?adb_handle@AdbObjectHandle@@QBEPAXXZ @44
?endpoint_id@AdbEndpointObject@@QBEEXZ=AdbWinApi.?endpoint_id@AdbEndpointObject@@QBEEXZ @45
?endpoint_index@AdbEndpointObject@@QBEEXZ=AdbWinApi.?endpoint_index@AdbEndpointObject@@QBEEXZ @46
?interface_name@AdbInterfaceObject@@QBEABV?$basic_string@GU?$char_traits@G@std@@V?$allocator@G@2@@std@@XZ=AdbWinApi.?interface_name@AdbInterfaceObject@@QBEABV?$basic_string@GU?$char_traits@G@std@@V?$allocator@G@2@@std@@XZ @47
?object_type@AdbObjectHandle@@QBE?AW4AdbObjectType@@XZ=AdbWinApi.?object_type@AdbObjectHandle@@QBE?AW4AdbObjectType@@XZ @48
?overlapped@AdbIOCompletion@@QAEPAU_OVERLAPPED@@XZ=AdbWinApi.?overlapped@AdbIOCompletion@@QAEPAU_OVERLAPPED@@XZ @49
?parent_interface@AdbEndpointObject@@QBEPAVAdbInterfaceObject@@XZ=AdbWinApi.?parent_interface@AdbEndpointObject@@QBEPAVAdbInterfaceObject@@XZ @50
?parent_io_object@AdbIOCompletion@@QBEPAVAdbEndpointObject@@XZ=AdbWinApi.?parent_io_object@AdbIOCompletion@@QBEPAVAdbEndpointObject@@XZ @51
?usb_config_descriptor@AdbInterfaceObject@@QBEPBU_USB_CONFIGURATION_DESCRIPTOR@@XZ=AdbWinApi.?usb_config_descriptor@AdbInterfaceObject@@QBEPBU_USB_CONFIGURATION_DESCRIPTOR@@XZ @52
?usb_device_descriptor@AdbInterfaceObject@@QBEPBU_USB_DEVICE_DESCRIPTOR@@XZ=AdbWinApi.?usb_device_descriptor@AdbInterfaceObject@@QBEPBU_USB_DEVICE_DESCRIPTOR@@XZ @53
?usb_interface_descriptor@AdbInterfaceObject@@QBEPBU_USB_INTERFACE_DESCRIPTOR@@XZ=AdbWinApi.?usb_interface_descriptor@AdbInterfaceObject@@QBEPBU_USB_INTERFACE_DESCRIPTOR@@XZ @54
AdbCloseHandle=AdbWinApi.AdbCloseHandle @55
AdbCreateInterface=AdbWinApi.AdbCreateInterface @56
AdbCreateInterfaceByName=AdbWinApi.AdbCreateInterfaceByName @57
AdbEnumInterfaces=AdbWinApi.AdbEnumInterfaces @58
AdbGetDefaultBulkReadEndpointInformation=AdbWinApi.AdbGetDefaultBulkReadEndpointInformation @59
AdbGetDefaultBulkWriteEndpointInformation=AdbWinApi.AdbGetDefaultBulkWriteEndpointInformation @60
AdbGetEndpointInformation=AdbWinApi.AdbGetEndpointInformation @61
AdbGetEndpointInterface=AdbWinApi.AdbGetEndpointInterface @62
AdbGetInterfaceName=AdbWinApi.AdbGetInterfaceName @63
AdbGetOvelappedIoResult=AdbWinApi.AdbGetOvelappedIoResult @64
AdbGetSerialNumber=AdbWinApi.AdbGetSerialNumber @65
AdbGetUsbConfigurationDescriptor=AdbWinApi.AdbGetUsbConfigurationDescriptor @66
AdbGetUsbDeviceDescriptor=AdbWinApi.AdbGetUsbDeviceDescriptor @67
AdbGetUsbInterfaceDescriptor=AdbWinApi.AdbGetUsbInterfaceDescriptor @68
AdbHasOvelappedIoComplated=AdbWinApi.AdbHasOvelappedIoComplated @69
AdbNextInterface=AdbWinApi.AdbNextInterface @70
AdbOpenDefaultBulkReadEndpoint=AdbWinApi.AdbOpenDefaultBulkReadEndpoint @71
AdbOpenDefaultBulkWriteEndpoint=AdbWinApi.AdbOpenDefaultBulkWriteEndpoint @72
AdbOpenEndpoint=AdbWinApi.AdbOpenEndpoint @73
AdbQueryInformationEndpoint=AdbWinApi.AdbQueryInformationEndpoint @74
AdbReadEndpointAsync=AdbWinApi.AdbReadEndpointAsync @75
AdbReadEndpointSync=AdbWinApi.AdbReadEndpointSync @76
AdbResetInterfaceEnum=AdbWinApi.AdbResetInterfaceEnum @77
AdbWriteEndpointAsync=AdbWinApi.AdbWriteEndpointAsync @78
AdbWriteEndpointSync=AdbWinApi.AdbWriteEndpointSync @79
